(dp0
S'cars'
p1
(lp2
ccopy_reg
_reconstructor
p3
(ccars
Car
p4
c__builtin__
object
p5
Ntp6
Rp7
(dp8
S'carname'
p9
S'Renault'
p10
sS'carid'
p11
I1
sS'size'
p12
I3
sbag3
(g4
g5
Ntp13
Rp14
(dp15
g9
S'BMV'
p16
sg11
I2
sg12
I2
sbasS'companies'
p17
(lp18
g3
(ccompanies
Company
p19
g5
Ntp20
Rp21
(dp22
g9
S'BMV'
p23
sS'name'
p24
S'Rest'
p25
sS'cid'
p26
I1
sbag3
(g19
g5
Ntp27
Rp28
(dp29
g9
S'Renault'
p30
sg24
S'Young'
p31
sg26
I2
sbasS'plast'
p32
I3
sS'last'
p33
I3
s.